target datalayout = "e-m:e-p270:32:32-p271:32:32-p272:64:64-i64:64-i128:128-f80:128-n8:16:32:64-S128"
target triple = "x86_64-pc-linux-gnu"

%struct.sentinelState = type { [41 x i8], i64, ptr, i32, i32, i64, i64, ptr, ptr, i32, i64, i32, ptr, ptr, i32, i32 }
%struct.sentinelRedisInstance = type { i32, ptr, ptr, i64, ptr, ptr, i64, i64, i64, i64, i64, i64, i64, i64, i64, ptr, i32, i64, i64, ptr, ptr, i32, i32, ptr, ptr, i64, i32, i32, i64, ptr, ptr, i32, i32, i64, ptr, i64, i64, i32, i64, i64, i64, i64, ptr, ptr, ptr, ptr }
%struct.instanceLink = type { i32, i32, i32, ptr, ptr, i64, i64, i64, i64, i64, i64, i64, i64 }

@sentinel = dso_local global %struct.sentinelState zeroinitializer, align 8
@.str.148 = private unnamed_addr constant [17 x i8] c"sentinel-%.8s-%s\00", align 1
@.str.149 = private unnamed_addr constant [14 x i8] c"%s SETNAME %s\00", align 1
@.str.150 = private unnamed_addr constant [7 x i8] c"CLIENT\00", align 1

; Function Attrs: nounwind uwtable
define dso_local ptr @sentinelInstanceMapCommand(ptr noundef %0, ptr noundef %1) #0 {
  %3 = alloca ptr, align 8
  %4 = alloca ptr, align 8
  %5 = alloca ptr, align 8
  %6 = alloca ptr, align 8
  store ptr %0, ptr %3, align 8, !tbaa !11
  store ptr %1, ptr %4, align 8, !tbaa !93
  call void @llvm.lifetime.start.p0(i64 8, ptr %5) #16
  %7 = load ptr, ptr %4, align 8, !tbaa !93
  %8 = call ptr @sdsnew(ptr noundef %7)
  store ptr %8, ptr %5, align 8, !tbaa !93
  %9 = load ptr, ptr %3, align 8, !tbaa !11
  %10 = getelementptr inbounds nuw %struct.sentinelRedisInstance, ptr %9, i32 0, i32 29
  %11 = load ptr, ptr %10, align 8, !tbaa !35
  %12 = icmp ne ptr %11, null
  br i1 %12, label %13, label %17

13:                                               ; preds = %2
  %14 = load ptr, ptr %3, align 8, !tbaa !11
  %15 = getelementptr inbounds nuw %struct.sentinelRedisInstance, ptr %14, i32 0, i32 29
  %16 = load ptr, ptr %15, align 8, !tbaa !35
  store ptr %16, ptr %3, align 8, !tbaa !11
  br label %17

17:                                               ; preds = %13, %2
  call void @llvm.lifetime.start.p0(i64 8, ptr %6) #16
  %18 = load ptr, ptr %3, align 8, !tbaa !11
  %19 = getelementptr inbounds nuw %struct.sentinelRedisInstance, ptr %18, i32 0, i32 15
  %20 = load ptr, ptr %19, align 8, !tbaa !33
  %21 = load ptr, ptr %5, align 8, !tbaa !93
  %22 = call ptr @dictFetchValue(ptr noundef %20, ptr noundef %21)
  store ptr %22, ptr %6, align 8, !tbaa !93
  %23 = load ptr, ptr %5, align 8, !tbaa !93
  call void @sdsfree(ptr noundef %23)
  %24 = load ptr, ptr %6, align 8, !tbaa !93
  %25 = icmp ne ptr %24, null
  br i1 %25, label %26, label %28

26:                                               ; preds = %17
  %27 = load ptr, ptr %6, align 8, !tbaa !93
  br label %30

28:                                               ; preds = %17
  %29 = load ptr, ptr %4, align 8, !tbaa !93
  br label %30

30:                                               ; preds = %28, %26
  %31 = phi ptr [ %27, %26 ], [ %29, %28 ]
  call void @llvm.lifetime.end.p0(i64 8, ptr %6) #16
  call void @llvm.lifetime.end.p0(i64 8, ptr %5) #16
  ret ptr %31
}

; Function Attrs: nounwind uwtable
define dso_local void @sentinelSetClientName(ptr noundef %0, ptr noundef %1, ptr noundef %2) #0 {
  %4 = alloca ptr, align 8
  %5 = alloca ptr, align 8
  %6 = alloca ptr, align 8
  %7 = alloca [64 x i8], align 16
  store ptr %0, ptr %4, align 8, !tbaa !11
  store ptr %1, ptr %5, align 8, !tbaa !145
  store ptr %2, ptr %6, align 8, !tbaa !93
  call void @llvm.lifetime.start.p0(i64 64, ptr %7) #16
  %8 = getelementptr inbounds [64 x i8], ptr %7, i64 0, i64 0
  %9 = load ptr, ptr %6, align 8, !tbaa !93
  %10 = call i32 (ptr, i64, ptr, ...) @snprintf(ptr noundef %8, i64 noundef 64, ptr noundef @.str.148, ptr noundef @sentinel, ptr noundef %9) #16
  %11 = load ptr, ptr %5, align 8, !tbaa !145
  %12 = load ptr, ptr %4, align 8, !tbaa !11
  %13 = load ptr, ptr %4, align 8, !tbaa !11
  %14 = call ptr @sentinelInstanceMapCommand(ptr noundef %13, ptr noundef @.str.150)
  %15 = getelementptr inbounds [64 x i8], ptr %7, i64 0, i64 0
  %16 = call i32 (ptr, ptr, ptr, ptr, ...) @redisAsyncCommand(ptr noundef %11, ptr noundef @sentinelDiscardReplyCallback, ptr noundef %12, ptr noundef @.str.149, ptr noundef %14, ptr noundef %15)
  %17 = icmp eq i32 %16, 0
  br i1 %17, label %18, label %25

18:                                               ; preds = %3
  %19 = load ptr, ptr %4, align 8, !tbaa !11
  %20 = getelementptr inbounds nuw %struct.sentinelRedisInstance, ptr %19, i32 0, i32 5
  %21 = load ptr, ptr %20, align 8, !tbaa !22
  %22 = getelementptr inbounds nuw %struct.instanceLink, ptr %21, i32 0, i32 2
  %23 = load i32, ptr %22, align 8, !tbaa !134
  %24 = add nsw i32 %23, 1
  store i32 %24, ptr %22, align 8, !tbaa !134
  br label %25

25:                                               ; preds = %18, %3
  call void @llvm.lifetime.end.p0(i64 64, ptr %7) #16
  ret void
}