; Function Attrs: nounwind uwtable
define dso_local void @sentinelSetClientName(ptr noundef %0, ptr noundef %1, ptr noundef %2) local_unnamed_addr #0 {
  %4 = alloca [64 x i8], align 16
  call void @llvm.lifetime.start.p0(i64 64, ptr nonnull %4) #30
  %5 = call i32 (ptr, i64, ptr, ...) @snprintf(ptr noundef nonnull dereferenceable(1) %4, i64 noundef 64, ptr noundef nonnull @.str.148, ptr noundef nonnull @sentinel, ptr noundef %2) #30
  %6 = tail call ptr @sdsnew(ptr noundef nonnull @.str.150) #30
  %7 = getelementptr inbounds nuw i8, ptr %0, i64 216
  %8 = load ptr, ptr %7, align 8, !tbaa !35
  %.not.i = icmp eq ptr %8, null
  %spec.select.i = select i1 %.not.i, ptr %0, ptr %8
  %9 = getelementptr inbounds nuw i8, ptr %spec.select.i, i64 120
  %10 = load ptr, ptr %9, align 8, !tbaa !33
  %11 = tail call ptr @dictFetchValue(ptr noundef %10, ptr noundef %6) #30
  tail call void @sdsfree(ptr noundef %6) #30
  %.not10.i = icmp eq ptr %11, null
  %12 = select i1 %.not10.i, ptr @.str.150, ptr %11
  %13 = call i32 (ptr, ptr, ptr, ptr, ...) @redisAsyncCommand(ptr noundef %1, ptr noundef nonnull @sentinelDiscardReplyCallback, ptr noundef %0, ptr noundef nonnull @.str.149, ptr noundef nonnull %12, ptr noundef nonnull %4) #30
  %14 = icmp eq i32 %13, 0
  br i1 %14, label %15, label %21

15:                                               ; preds = %3
  %16 = getelementptr inbounds nuw i8, ptr %0, i64 40
  %17 = load ptr, ptr %16, align 8, !tbaa !19
  %18 = getelementptr inbounds nuw i8, ptr %17, i64 8
  %19 = load i32, ptr %18, align 8, !tbaa !118
  %20 = add nsw i32 %19, 1
  store i32 %20, ptr %18, align 8, !tbaa !118
  br label %21

21:                                               ; preds = %15, %3
  call void @llvm.lifetime.end.p0(i64 64, ptr nonnull %4) #30
  ret void
}